
_Display_Temperature:

;WaterTemp.c,21 :: 		void Display_Temperature(unsigned int temp2write) {
;WaterTemp.c,26 :: 		if (temp2write & 0x8000) {
	BTFSS      FARG_Display_Temperature_temp2write+1, 7
	GOTO       L_Display_Temperature0
;WaterTemp.c,27 :: 		text[0] = '-';
	MOVF       _text+0, 0
	MOVWF      FSR
	MOVLW      45
	MOVWF      INDF+0
;WaterTemp.c,28 :: 		temp2write = ~temp2write + 1;
	COMF       FARG_Display_Temperature_temp2write+0, 1
	COMF       FARG_Display_Temperature_temp2write+1, 1
	INCF       FARG_Display_Temperature_temp2write+0, 1
	BTFSC      STATUS+0, 2
	INCF       FARG_Display_Temperature_temp2write+1, 1
;WaterTemp.c,29 :: 		}
L_Display_Temperature0:
;WaterTemp.c,31 :: 		temp_whole = temp2write >> RES_SHIFT ;
	MOVF       FARG_Display_Temperature_temp2write+0, 0
	MOVWF      R0+0
	MOVF       FARG_Display_Temperature_temp2write+1, 0
	MOVWF      R0+1
	RRF        R0+1, 1
	RRF        R0+0, 1
	BCF        R0+1, 7
	RRF        R0+1, 1
	RRF        R0+0, 1
	BCF        R0+1, 7
	RRF        R0+1, 1
	RRF        R0+0, 1
	BCF        R0+1, 7
	RRF        R0+1, 1
	RRF        R0+0, 1
	BCF        R0+1, 7
	MOVF       R0+0, 0
	MOVWF      Display_Temperature_temp_whole_L0+0
;WaterTemp.c,33 :: 		if (temp_whole/100)
	MOVLW      100
	MOVWF      R4+0
	CALL       _Div_8X8_U+0
	MOVF       R0+0, 0
	BTFSC      STATUS+0, 2
	GOTO       L_Display_Temperature1
;WaterTemp.c,34 :: 		text[0] = temp_whole/100  + 48;
	MOVLW      100
	MOVWF      R4+0
	MOVF       Display_Temperature_temp_whole_L0+0, 0
	MOVWF      R0+0
	CALL       _Div_8X8_U+0
	MOVLW      48
	ADDWF      R0+0, 1
	MOVF       _text+0, 0
	MOVWF      FSR
	MOVF       R0+0, 0
	MOVWF      INDF+0
	GOTO       L_Display_Temperature2
L_Display_Temperature1:
;WaterTemp.c,36 :: 		text[0] = '0';
	MOVF       _text+0, 0
	MOVWF      FSR
	MOVLW      48
	MOVWF      INDF+0
L_Display_Temperature2:
;WaterTemp.c,38 :: 		text[1] = (temp_whole/10)%10 + 48;             // Extract tens digit
	INCF       _text+0, 0
	MOVWF      FLOC__Display_Temperature+0
	MOVLW      10
	MOVWF      R4+0
	MOVF       Display_Temperature_temp_whole_L0+0, 0
	MOVWF      R0+0
	CALL       _Div_8X8_U+0
	MOVLW      10
	MOVWF      R4+0
	CALL       _Div_8X8_U+0
	MOVF       R8+0, 0
	MOVWF      R0+0
	MOVLW      48
	ADDWF      R0+0, 1
	MOVF       FLOC__Display_Temperature+0, 0
	MOVWF      FSR
	MOVF       R0+0, 0
	MOVWF      INDF+0
;WaterTemp.c,39 :: 		text[2] =  temp_whole%10     + 48;             // Extract ones digit
	MOVLW      2
	ADDWF      _text+0, 0
	MOVWF      FLOC__Display_Temperature+0
	MOVLW      10
	MOVWF      R4+0
	MOVF       Display_Temperature_temp_whole_L0+0, 0
	MOVWF      R0+0
	CALL       _Div_8X8_U+0
	MOVF       R8+0, 0
	MOVWF      R0+0
	MOVLW      48
	ADDWF      R0+0, 1
	MOVF       FLOC__Display_Temperature+0, 0
	MOVWF      FSR
	MOVF       R0+0, 0
	MOVWF      INDF+0
;WaterTemp.c,42 :: 		temp_fraction  = temp2write << (4-RES_SHIFT);
	MOVF       FARG_Display_Temperature_temp2write+0, 0
	MOVWF      Display_Temperature_temp_fraction_L0+0
	MOVF       FARG_Display_Temperature_temp2write+1, 0
	MOVWF      Display_Temperature_temp_fraction_L0+1
;WaterTemp.c,43 :: 		temp_fraction &= 0x000F;
	MOVLW      15
	ANDWF      FARG_Display_Temperature_temp2write+0, 0
	MOVWF      R0+0
	MOVF       FARG_Display_Temperature_temp2write+1, 0
	MOVWF      R0+1
	MOVLW      0
	ANDWF      R0+1, 1
	MOVF       R0+0, 0
	MOVWF      Display_Temperature_temp_fraction_L0+0
	MOVF       R0+1, 0
	MOVWF      Display_Temperature_temp_fraction_L0+1
;WaterTemp.c,44 :: 		temp_fraction *= 625;
	MOVLW      113
	MOVWF      R4+0
	MOVLW      2
	MOVWF      R4+1
	CALL       _Mul_16X16_U+0
	MOVF       R0+0, 0
	MOVWF      Display_Temperature_temp_fraction_L0+0
	MOVF       R0+1, 0
	MOVWF      Display_Temperature_temp_fraction_L0+1
;WaterTemp.c,47 :: 		text[4] =  temp_fraction/1000    + 48;         // Extract thousands digit
	MOVLW      4
	ADDWF      _text+0, 0
	MOVWF      FLOC__Display_Temperature+0
	MOVLW      232
	MOVWF      R4+0
	MOVLW      3
	MOVWF      R4+1
	CALL       _Div_16X16_U+0
	MOVLW      48
	ADDWF      R0+0, 1
	MOVF       FLOC__Display_Temperature+0, 0
	MOVWF      FSR
	MOVF       R0+0, 0
	MOVWF      INDF+0
;WaterTemp.c,48 :: 		text[5] = (temp_fraction/100)%10 + 48;         // Extract hundreds digit
	MOVLW      5
	ADDWF      _text+0, 0
	MOVWF      FLOC__Display_Temperature+0
	MOVLW      100
	MOVWF      R4+0
	MOVLW      0
	MOVWF      R4+1
	MOVF       Display_Temperature_temp_fraction_L0+0, 0
	MOVWF      R0+0
	MOVF       Display_Temperature_temp_fraction_L0+1, 0
	MOVWF      R0+1
	CALL       _Div_16X16_U+0
	MOVLW      10
	MOVWF      R4+0
	MOVLW      0
	MOVWF      R4+1
	CALL       _Div_16X16_U+0
	MOVF       R8+0, 0
	MOVWF      R0+0
	MOVF       R8+1, 0
	MOVWF      R0+1
	MOVLW      48
	ADDWF      R0+0, 1
	MOVF       FLOC__Display_Temperature+0, 0
	MOVWF      FSR
	MOVF       R0+0, 0
	MOVWF      INDF+0
;WaterTemp.c,49 :: 		text[6] = (temp_fraction/10)%10  + 48;         // Extract tens digit
	MOVLW      6
	ADDWF      _text+0, 0
	MOVWF      FLOC__Display_Temperature+0
	MOVLW      10
	MOVWF      R4+0
	MOVLW      0
	MOVWF      R4+1
	MOVF       Display_Temperature_temp_fraction_L0+0, 0
	MOVWF      R0+0
	MOVF       Display_Temperature_temp_fraction_L0+1, 0
	MOVWF      R0+1
	CALL       _Div_16X16_U+0
	MOVLW      10
	MOVWF      R4+0
	MOVLW      0
	MOVWF      R4+1
	CALL       _Div_16X16_U+0
	MOVF       R8+0, 0
	MOVWF      R0+0
	MOVF       R8+1, 0
	MOVWF      R0+1
	MOVLW      48
	ADDWF      R0+0, 1
	MOVF       FLOC__Display_Temperature+0, 0
	MOVWF      FSR
	MOVF       R0+0, 0
	MOVWF      INDF+0
;WaterTemp.c,50 :: 		text[7] =  temp_fraction%10      + 48;         // Extract ones digit
	MOVLW      7
	ADDWF      _text+0, 0
	MOVWF      FLOC__Display_Temperature+0
	MOVLW      10
	MOVWF      R4+0
	MOVLW      0
	MOVWF      R4+1
	MOVF       Display_Temperature_temp_fraction_L0+0, 0
	MOVWF      R0+0
	MOVF       Display_Temperature_temp_fraction_L0+1, 0
	MOVWF      R0+1
	CALL       _Div_16X16_U+0
	MOVF       R8+0, 0
	MOVWF      R0+0
	MOVF       R8+1, 0
	MOVWF      R0+1
	MOVLW      48
	ADDWF      R0+0, 1
	MOVF       FLOC__Display_Temperature+0, 0
	MOVWF      FSR
	MOVF       R0+0, 0
	MOVWF      INDF+0
;WaterTemp.c,53 :: 		Lcd_Out(2, 5, text);
	MOVLW      2
	MOVWF      FARG_Lcd_Out_row+0
	MOVLW      5
	MOVWF      FARG_Lcd_Out_column+0
	MOVF       _text+0, 0
	MOVWF      FARG_Lcd_Out_text+0
	CALL       _Lcd_Out+0
;WaterTemp.c,54 :: 		}
L_end_Display_Temperature:
	RETURN
; end of _Display_Temperature

_Temperature:

;WaterTemp.c,57 :: 		void Temperature(){
;WaterTemp.c,58 :: 		Ow_Reset(&PORTE, 2);                         // Onewire reset signal
	MOVLW      PORTE+0
	MOVWF      FARG_Ow_Reset_port+0
	MOVLW      2
	MOVWF      FARG_Ow_Reset_pin+0
	CALL       _Ow_Reset+0
;WaterTemp.c,59 :: 		Ow_Write(&PORTE, 2, 0xCC);                   // Issue command SKIP_ROM
	MOVLW      PORTE+0
	MOVWF      FARG_Ow_Write_port+0
	MOVLW      2
	MOVWF      FARG_Ow_Write_pin+0
	MOVLW      204
	MOVWF      FARG_Ow_Write_data_+0
	CALL       _Ow_Write+0
;WaterTemp.c,60 :: 		Ow_Write(&PORTE, 2, 0x44);                   // Issue command CONVERT_T
	MOVLW      PORTE+0
	MOVWF      FARG_Ow_Write_port+0
	MOVLW      2
	MOVWF      FARG_Ow_Write_pin+0
	MOVLW      68
	MOVWF      FARG_Ow_Write_data_+0
	CALL       _Ow_Write+0
;WaterTemp.c,61 :: 		Delay_us(120);
	MOVLW      199
	MOVWF      R13+0
L_Temperature3:
	DECFSZ     R13+0, 1
	GOTO       L_Temperature3
	NOP
	NOP
;WaterTemp.c,63 :: 		Ow_Reset(&PORTE, 2);
	MOVLW      PORTE+0
	MOVWF      FARG_Ow_Reset_port+0
	MOVLW      2
	MOVWF      FARG_Ow_Reset_pin+0
	CALL       _Ow_Reset+0
;WaterTemp.c,64 :: 		Ow_Write(&PORTE, 2, 0xCC);                   // Issue command SKIP_ROM
	MOVLW      PORTE+0
	MOVWF      FARG_Ow_Write_port+0
	MOVLW      2
	MOVWF      FARG_Ow_Write_pin+0
	MOVLW      204
	MOVWF      FARG_Ow_Write_data_+0
	CALL       _Ow_Write+0
;WaterTemp.c,65 :: 		Ow_Write(&PORTE, 2, 0xBE);                   // Issue command READ_SCRATCHPAD
	MOVLW      PORTE+0
	MOVWF      FARG_Ow_Write_port+0
	MOVLW      2
	MOVWF      FARG_Ow_Write_pin+0
	MOVLW      190
	MOVWF      FARG_Ow_Write_data_+0
	CALL       _Ow_Write+0
;WaterTemp.c,67 :: 		temp =  Ow_Read(&PORTE, 2);
	MOVLW      PORTE+0
	MOVWF      FARG_Ow_Read_port+0
	MOVLW      2
	MOVWF      FARG_Ow_Read_pin+0
	CALL       _Ow_Read+0
	MOVF       R0+0, 0
	MOVWF      _temp+0
	CLRF       _temp+1
;WaterTemp.c,68 :: 		temp = (Ow_Read(&PORTE, 2) << 8) + temp;
	MOVLW      PORTE+0
	MOVWF      FARG_Ow_Read_port+0
	MOVLW      2
	MOVWF      FARG_Ow_Read_pin+0
	CALL       _Ow_Read+0
	MOVF       R0+0, 0
	MOVWF      R1+1
	CLRF       R1+0
	MOVF       R1+0, 0
	ADDWF      _temp+0, 1
	MOVF       R1+1, 0
	BTFSC      STATUS+0, 0
	ADDLW      1
	ADDWF      _temp+1, 1
;WaterTemp.c,72 :: 		Lcd_Cmd(_LCD_CLEAR);                           // Clear LCD
	MOVLW      1
	MOVWF      FARG_Lcd_Cmd_out_char+0
	CALL       _Lcd_Cmd+0
;WaterTemp.c,73 :: 		Lcd_Cmd(_LCD_CURSOR_OFF);                      // Turn cursor off
	MOVLW      12
	MOVWF      FARG_Lcd_Cmd_out_char+0
	CALL       _Lcd_Cmd+0
;WaterTemp.c,74 :: 		Lcd_Out(1, 1, " Temperature:   ");
	MOVLW      1
	MOVWF      FARG_Lcd_Out_row+0
	MOVLW      1
	MOVWF      FARG_Lcd_Out_column+0
	MOVLW      ?lstr2_WaterTemp+0
	MOVWF      FARG_Lcd_Out_text+0
	CALL       _Lcd_Out+0
;WaterTemp.c,77 :: 		Lcd_Chr(2,13,223);                             // Different LCD displays have different char code for degree
	MOVLW      2
	MOVWF      FARG_Lcd_Chr_row+0
	MOVLW      13
	MOVWF      FARG_Lcd_Chr_column+0
	MOVLW      223
	MOVWF      FARG_Lcd_Chr_out_char+0
	CALL       _Lcd_Chr+0
;WaterTemp.c,79 :: 		Lcd_Chr(2,14,'C');
	MOVLW      2
	MOVWF      FARG_Lcd_Chr_row+0
	MOVLW      14
	MOVWF      FARG_Lcd_Chr_column+0
	MOVLW      67
	MOVWF      FARG_Lcd_Chr_out_char+0
	CALL       _Lcd_Chr+0
;WaterTemp.c,81 :: 		Display_Temperature(temp);
	MOVF       _temp+0, 0
	MOVWF      FARG_Display_Temperature_temp2write+0
	MOVF       _temp+1, 0
	MOVWF      FARG_Display_Temperature_temp2write+1
	CALL       _Display_Temperature+0
;WaterTemp.c,82 :: 		Delay_ms(300);
	MOVLW      8
	MOVWF      R11+0
	MOVLW      157
	MOVWF      R12+0
	MOVLW      5
	MOVWF      R13+0
L_Temperature4:
	DECFSZ     R13+0, 1
	GOTO       L_Temperature4
	DECFSZ     R12+0, 1
	GOTO       L_Temperature4
	DECFSZ     R11+0, 1
	GOTO       L_Temperature4
	NOP
	NOP
;WaterTemp.c,87 :: 		}
L_end_Temperature:
	RETURN
; end of _Temperature

_main:

;WaterTemp.c,90 :: 		void main() {
;WaterTemp.c,91 :: 		ADCON1 = 0x7A; //Configure AN Pins.
	MOVLW      122
	MOVWF      ADCON1+0
;WaterTemp.c,92 :: 		CMCON = 0x07;  // To turn off comparators
	MOVLW      7
	MOVWF      CMCON+0
;WaterTemp.c,94 :: 		Lcd_Init();    // Initialize LCD
	CALL       _Lcd_Init+0
;WaterTemp.c,97 :: 		do {
L_main5:
;WaterTemp.c,100 :: 		for(i=0; i<10; i++) {             // Loop 10 times
	CLRF       _i+0
L_main8:
	MOVLW      10
	SUBWF      _i+0, 0
	BTFSC      STATUS+0, 0
	GOTO       L_main9
;WaterTemp.c,102 :: 		Temperature();
	CALL       _Temperature+0
;WaterTemp.c,103 :: 		Delay_ms(300);
	MOVLW      8
	MOVWF      R11+0
	MOVLW      157
	MOVWF      R12+0
	MOVLW      5
	MOVWF      R13+0
L_main11:
	DECFSZ     R13+0, 1
	GOTO       L_main11
	DECFSZ     R12+0, 1
	GOTO       L_main11
	DECFSZ     R11+0, 1
	GOTO       L_main11
	NOP
	NOP
;WaterTemp.c,100 :: 		for(i=0; i<10; i++) {             // Loop 10 times
	INCF       _i+0, 1
;WaterTemp.c,104 :: 		}
	GOTO       L_main8
L_main9:
;WaterTemp.c,106 :: 		} while(1);
	GOTO       L_main5
;WaterTemp.c,107 :: 		}
L_end_main:
	GOTO       $+0
; end of _main
